target datalayout = "e-m:e-p270:32:32-p271:32:32-p272:64:64-i64:64-i128:128-f80:128-n8:16:32:64-S128"
target triple = "x86_64-pc-linux-gnu"

%struct.part_res_record = type { ptr, i16, ptr, i8, ptr }
%struct.part_record = type { i32, ptr, ptr, ptr, ptr, ptr, ptr, i32, ptr, ptr, ptr, ptr, ptr, i32, i64, i32, ptr, ptr, ptr, ptr, ptr, i32, i32, ptr, i32, i32, i64, i32, i32, i16, i32, i32, i32, i32, ptr, ptr, ptr, ptr, ptr, double, i16, i16, i16, i16, ptr, ptr, i16, i16, i32, i16, i32, i32, i32, i32, i16, ptr, ptr, ptr }

; Function Attrs: nounwind uwtable
define internal i32 @_sort_part_prio(ptr noundef %0, ptr noundef %1) #0 {
  %3 = alloca i32, align 4
  %4 = alloca ptr, align 8
  %5 = alloca ptr, align 8
  %6 = alloca ptr, align 8
  %7 = alloca ptr, align 8
  %8 = alloca i32, align 4
  store ptr %0, ptr %4, align 8
  store ptr %1, ptr %5, align 8
  call void @llvm.lifetime.start.p0(i64 8, ptr %6) #5
  %9 = load ptr, ptr %4, align 8
  %10 = load ptr, ptr %9, align 8
  store ptr %10, ptr %6, align 8
  call void @llvm.lifetime.start.p0(i64 8, ptr %7) #5
  %11 = load ptr, ptr %5, align 8
  %12 = load ptr, ptr %11, align 8
  store ptr %12, ptr %7, align 8
  %13 = load ptr, ptr %6, align 8
  %14 = getelementptr inbounds nuw %struct.part_res_record, ptr %13, i32 0, i32 2
  %15 = load ptr, ptr %14, align 8
  %16 = getelementptr inbounds nuw %struct.part_record, ptr %15, i32 0, i32 43
  %17 = load i16, ptr %16, align 2
  %18 = zext i16 %17 to i32
  %19 = load ptr, ptr %7, align 8
  %20 = getelementptr inbounds nuw %struct.part_res_record, ptr %19, i32 0, i32 2
  %21 = load ptr, ptr %20, align 8
  %22 = getelementptr inbounds nuw %struct.part_record, ptr %21, i32 0, i32 43
  %23 = load i16, ptr %22, align 2
  %24 = zext i16 %23 to i32
  %25 = icmp sgt i32 %18, %24
  br i1 %25, label %26, label %27

26:                                               ; preds = %2
  store i32 -1, ptr %3, align 4
  store i32 1, ptr %8, align 4
  br label %43

27:                                               ; preds = %2
  %28 = load ptr, ptr %6, align 8
  %29 = getelementptr inbounds nuw %struct.part_res_record, ptr %28, i32 0, i32 2
  %30 = load ptr, ptr %29, align 8
  %31 = getelementptr inbounds nuw %struct.part_record, ptr %30, i32 0, i32 43
  %32 = load i16, ptr %31, align 2
  %33 = zext i16 %32 to i32
  %34 = load ptr, ptr %7, align 8
  %35 = getelementptr inbounds nuw %struct.part_res_record, ptr %34, i32 0, i32 2
  %36 = load ptr, ptr %35, align 8
  %37 = getelementptr inbounds nuw %struct.part_record, ptr %36, i32 0, i32 43
  %38 = load i16, ptr %37, align 2
  %39 = zext i16 %38 to i32
  %40 = icmp slt i32 %33, %39
  br i1 %40, label %41, label %42

41:                                               ; preds = %27
  store i32 1, ptr %3, align 4
  store i32 1, ptr %8, align 4
  br label %43

42:                                               ; preds = %27
  store i32 0, ptr %3, align 4
  store i32 1, ptr %8, align 4
  br label %43

43:                                               ; preds = %42, %41, %26
  call void @llvm.lifetime.end.p0(i64 8, ptr %7) #5
  call void @llvm.lifetime.end.p0(i64 8, ptr %6) #5
  %44 = load i32, ptr %3, align 4
  ret i32 %44
}